target datalayout = "e-m:e-p270:32:32-p271:32:32-p272:64:64-i64:64-i128:128-f80:128-n8:16:32:64-S128"
target triple = "x86_64-pc-linux-gnu"

%"class.std::__cxx11::basic_string" = type { %"struct.std::__cxx11::basic_string<char>::_Alloc_hider", i64, %union.anon }
%"struct.std::__cxx11::basic_string<char>::_Alloc_hider" = type { ptr }
%union.anon = type { i64, [8 x i8] }
%class.cmExportFileGenerator = type <{ ptr, %"class.std::__cxx11::basic_string", i8, [7 x i8], %"class.std::vector", %"class.std::__cxx11::basic_string", %"class.std::__cxx11::basic_string", %"class.std::__cxx11::basic_string", %"class.std::__cxx11::basic_string", i8, [7 x i8], %"class.std::set", %"class.std::vector", %"class.std::set.6", i32, i32, i32, i8, [3 x i8] }>
%"class.std::set" = type { %"class.std::_Rb_tree" }
%"class.std::_Rb_tree" = type { %"struct.std::_Rb_tree<cmGeneratorTarget *, cmGeneratorTarget *, std::_Identity<cmGeneratorTarget *>, std::less<cmGeneratorTarget *>>::_Rb_tree_impl" }
%"struct.std::_Rb_tree<cmGeneratorTarget *, cmGeneratorTarget *, std::_Identity<cmGeneratorTarget *>, std::less<cmGeneratorTarget *>>::_Rb_tree_impl" = type { %"struct.std::_Rb_tree_key_compare", %"struct.std::_Rb_tree_header" }
%"struct.std::_Rb_tree_key_compare" = type { %"struct.std::less" }
%"struct.std::less" = type { i8 }
%"struct.std::_Rb_tree_header" = type { %"struct.std::_Rb_tree_node_base", i64 }
%"struct.std::_Rb_tree_node_base" = type { i32, ptr, ptr, ptr }
%"class.std::vector" = type { %"struct.std::_Vector_base" }
%"struct.std::_Vector_base" = type { %"struct.std::_Vector_base<std::__cxx11::basic_string<char>, std::allocator<std::__cxx11::basic_string<char>>>::_Vector_impl" }
%"struct.std::_Vector_base<std::__cxx11::basic_string<char>, std::allocator<std::__cxx11::basic_string<char>>>::_Vector_impl" = type { %"struct.std::_Vector_base<std::__cxx11::basic_string<char>, std::allocator<std::__cxx11::basic_string<char>>>::_Vector_impl_data" }
%"struct.std::_Vector_base<std::__cxx11::basic_string<char>, std::allocator<std::__cxx11::basic_string<char>>>::_Vector_impl_data" = type { ptr, ptr, ptr }
%"class.std::set.6" = type { %"class.std::_Rb_tree.7" }
%"class.std::_Rb_tree.7" = type { %"struct.std::_Rb_tree<const cmGeneratorTarget *, const cmGeneratorTarget *, std::_Identity<const cmGeneratorTarget *>, std::less<const cmGeneratorTarget *>>::_Rb_tree_impl" }
%"struct.std::_Rb_tree<const cmGeneratorTarget *, const cmGeneratorTarget *, std::_Identity<const cmGeneratorTarget *>, std::less<const cmGeneratorTarget *>>::_Rb_tree_impl" = type { %"struct.std::_Rb_tree_key_compare.11", %"struct.std::_Rb_tree_header" }
%"struct.std::_Rb_tree_key_compare.11" = type { %"struct.std::less.12" }
%"struct.std::less.12" = type { i8 }

; Function Attrs: mustprogress nounwind uwtable
define dso_local void @_ZN21cmExportFileGenerator23SetRequiredCMakeVersionEjjj(ptr noundef nonnull align 8 dereferenceable(341) %0, i32 noundef %1, i32 noundef %2, i32 noundef %3) #4 align 2 {
  %5 = alloca ptr, align 8
  %6 = alloca i32, align 4
  %7 = alloca i32, align 4
  %8 = alloca i32, align 4
  store ptr %0, ptr %5, align 8
  store i32 %1, ptr %6, align 4
  store i32 %2, ptr %7, align 4
  store i32 %3, ptr %8, align 4
  %9 = load ptr, ptr %5, align 8
  %10 = load i32, ptr %6, align 4
  %11 = mul i32 %10, 1000
  %12 = zext i32 %11 to i64
  %13 = mul i64 %12, 100000000
  %14 = load i32, ptr %7, align 4
  %15 = urem i32 %14, 1000
  %16 = zext i32 %15 to i64
  %17 = mul i64 %16, 100000000
  %18 = add i64 %13, %17
  %19 = load i32, ptr %8, align 4
  %20 = zext i32 %19 to i64
  %21 = urem i64 %20, 100000000
  %22 = add i64 %18, %21
  %23 = getelementptr inbounds %class.cmExportFileGenerator, ptr %9, i32 0, i32 14
  %24 = load i32, ptr %23, align 8
  %25 = mul i32 %24, 1000
  %26 = zext i32 %25 to i64
  %27 = mul i64 %26, 100000000
  %28 = getelementptr inbounds %class.cmExportFileGenerator, ptr %9, i32 0, i32 15
  %29 = load i32, ptr %28, align 4
  %30 = urem i32 %29, 1000
  %31 = zext i32 %30 to i64
  %32 = mul i64 %31, 100000000
  %33 = add i64 %27, %32
  %34 = getelementptr inbounds %class.cmExportFileGenerator, ptr %9, i32 0, i32 16
  %35 = load i32, ptr %34, align 8
  %36 = zext i32 %35 to i64
  %37 = urem i64 %36, 100000000
  %38 = add i64 %33, %37
  %39 = icmp ugt i64 %22, %38
  br i1 %39, label %40, label %47

40:                                               ; preds = %4
  %41 = load i32, ptr %6, align 4
  %42 = getelementptr inbounds %class.cmExportFileGenerator, ptr %9, i32 0, i32 14
  store i32 %41, ptr %42, align 8
  %43 = load i32, ptr %7, align 4
  %44 = getelementptr inbounds %class.cmExportFileGenerator, ptr %9, i32 0, i32 15
  store i32 %43, ptr %44, align 4
  %45 = load i32, ptr %8, align 4
  %46 = getelementptr inbounds %class.cmExportFileGenerator, ptr %9, i32 0, i32 16
  store i32 %45, ptr %46, align 8
  br label %47

47:                                               ; preds = %40, %4
  ret void
}