; Function Attrs: mustprogress nofree norecurse nosync nounwind willreturn memory(argmem: readwrite) uwtable
define dso_local void @_ZN21cmExportFileGenerator23SetRequiredCMakeVersionEjjj(ptr nocapture noundef nonnull align 8 dereferenceable(341) %0, i32 noundef %1, i32 noundef %2, i32 noundef %3) local_unnamed_addr #8 align 2 {
  %5 = mul i32 %1, 1000
  %6 = zext i32 %5 to i64
  %7 = urem i32 %2, 1000
  %8 = zext nneg i32 %7 to i64
  %9 = add nuw nsw i64 %8, %6
  %10 = mul nuw nsw i64 %9, 100000000
  %11 = urem i32 %3, 100000000
  %12 = zext nneg i32 %11 to i64
  %13 = add nuw nsw i64 %10, %12
  %14 = getelementptr inbounds i8, ptr %0, i64 328
  %15 = load i32, ptr %14, align 8
  %16 = mul i32 %15, 1000
  %17 = zext i32 %16 to i64
  %18 = getelementptr inbounds i8, ptr %0, i64 332
  %19 = load i32, ptr %18, align 4
  %20 = urem i32 %19, 1000
  %21 = zext nneg i32 %20 to i64
  %22 = add nuw nsw i64 %21, %17
  %23 = mul nuw nsw i64 %22, 100000000
  %24 = getelementptr inbounds i8, ptr %0, i64 336
  %25 = load i32, ptr %24, align 8
  %26 = urem i32 %25, 100000000
  %27 = zext nneg i32 %26 to i64
  %28 = add nuw nsw i64 %23, %27
  %29 = icmp ugt i64 %13, %28
  br i1 %29, label %30, label %31

30:                                               ; preds = %4
  store i32 %1, ptr %14, align 8
  store i32 %2, ptr %18, align 4
  store i32 %3, ptr %24, align 8
  br label %31

31:                                               ; preds = %30, %4
  ret void
}